(dp0
S'users'
p1
(dp2
Vnew2
p3
(dp4
S'sups'
p5
(lp6
sS'user_id'
p7
g3
sS'friends_list'
p8
(lp9
sS'full_name'
p10
Vnew guy2
p11
ssVnew3
p12
(dp13
S'sups'
p14
(lp15
sS'user_id'
p16
g12
sS'friends_list'
p17
(lp18
sS'full_name'
p19
Vnew guy3
p20
ssVnew1
p21
(dp22
S'sups'
p23
(lp24
sS'user_id'
p25
g21
sS'full_name'
p26
Vnew guy
p27
sS'friends_list'
p28
(lp29
ssS'stoick'
p30
(dp31
S'sups'
p32
(lp33
sS'user_id'
p34
g30
sS'full_name'
p35
S'stoick the vast'
p36
sS'friends_list'
p37
(lp38
Vhiccup
p39
assVnew
p40
(dp41
S'sups'
p42
(lp43
(dp44
S'date'
p45
V1/4/2015
p46
sS'sup_id'
p47
Vy69tangtonew1427902288190
p48
sS'sender_id'
p49
S'y69tang'
p50
sasS'user_id'
p51
g40
sS'friends_list'
p52
(lp53
sS'full_name'
p54
Vnew guy
p55
ssVdallas63
p56
(dp57
S'sups'
p58
(lp59
(dp60
S'date'
p61
V29/3/2015
p62
sS'sup_id'
p63
Vy69tangtodallas631427686374843
p64
sS'sender_id'
p65
S'y69tang'
p66
sa(dp67
S'date'
p68
V29/3/2015
p69
sS'sup_id'
p70
Vy69tangtodallas631427687865565
p71
sS'sender_id'
p72
S'y69tang'
p73
sa(dp74
S'date'
p75
V1/4/2015
p76
sS'sup_id'
p77
Vy69tangtodallas631427899945038
p78
sS'sender_id'
p79
S'y69tang'
p80
sa(dp81
S'date'
p82
V1/4/2015
p83
sS'sup_id'
p84
Vy69tangtodallas631427902288191
p85
sS'sender_id'
p86
S'y69tang'
p87
sa(dp88
S'date'
p89
V1/4/2015
p90
sS'sup_id'
p91
Vy69tangtodallas631427903452142
p92
sS'sender_id'
p93
S'y69tang'
p94
sa(dp95
S'date'
p96
V1/4/2015
p97
sS'sup_id'
p98
Vy69tangtodallas631427903453991
p99
sS'sender_id'
p100
S'y69tang'
p101
sa(dp102
S'date'
p103
V1/4/2015
p104
sS'sup_id'
p105
Vy69tangtodallas631427903455519
p106
sS'sender_id'
p107
S'y69tang'
p108
sa(dp109
S'date'
p110
V1/4/2015
p111
sS'sup_id'
p112
Vy69tangtodallas631427903457718
p113
sS'sender_id'
p114
S'y69tang'
p115
sa(dp116
S'date'
p117
V1/4/2015
p118
sS'sup_id'
p119
Vy69tangtodallas631427929350614
p120
sS'sender_id'
p121
S'y69tang'
p122
sa(dp123
S'date'
p124
V1/4/2015
p125
sS'sup_id'
p126
Vy69tangtodallas631427929377282
p127
sS'sender_id'
p128
S'y69tang'
p129
sa(dp130
S'date'
p131
V1/4/2015
p132
sS'sup_id'
p133
Vy69tangtodallas631427929401045
p134
sS'sender_id'
p135
S'y69tang'
p136
sa(dp137
S'date'
p138
V1/4/2015
p139
sS'sup_id'
p140
Vy69tangtodallas631427929426332
p141
sS'sender_id'
p142
S'y69tang'
p143
sa(dp144
S'date'
p145
V2/4/2015
p146
sS'sup_id'
p147
Vy69tangtodallas631427985255961
p148
sS'sender_id'
p149
S'y69tang'
p150
sa(dp151
S'date'
p152
V2/4/2015
p153
sS'sup_id'
p154
Vy69tangtodallas631427985488172
p155
sS'sender_id'
p156
S'y69tang'
p157
sa(dp158
S'date'
p159
V2/4/2015
p160
sS'sup_id'
p161
Vy69tangtodallas631427986293090
p162
sS'sender_id'
p163
S'y69tang'
p164
sa(dp165
S'date'
p166
V3/4/2015
p167
sS'sup_id'
p168
Vy69tangtodallas631428091908095
p169
sS'sender_id'
p170
S'y69tang'
p171
sasS'user_id'
p172
g56
sS'friends_list'
p173
(lp174
Vy69tang
p175
asS'full_name'
p176
VJFK
p177
ssVwasabi
p178
(dp179
S'sups'
p180
(lp181
sS'user_id'
p182
g178
sS'full_name'
p183
VWASABI
p184
sS'friends_list'
p185
(lp186
ssVfred
p187
(dp188
S'sups'
p189
(lp190
sS'user_id'
p191
g187
sS'friends_list'
p192
(lp193
sS'full_name'
p194
VFRED
p195
ssVhiccup
p196
(dp197
S'sups'
p198
(lp199
sS'user_id'
p200
g196
sS'full_name'
p201
VHICCUP
p202
sS'friends_list'
p203
(lp204
ssVbuddy0
p205
(dp206
S'sups'
p207
(lp208
(dp209
S'date'
p210
V2/4/2015
p211
sS'sup_id'
p212
Vy69tangtobuddy01427984643931
p213
sS'sender_id'
p214
S'y69tang'
p215
sa(dp216
S'date'
p217
V2/4/2015
p218
sS'sup_id'
p219
Vy69tangtobuddy01427984654027
p220
sS'sender_id'
p221
S'y69tang'
p222
sa(dp223
S'date'
p224
V2/4/2015
p225
sS'sup_id'
p226
Vy69tangtobuddy01427985247759
p227
sS'sender_id'
p228
S'y69tang'
p229
sa(dp230
S'date'
p231
V2/4/2015
p232
sS'sup_id'
p233
Vy69tangtobuddy01427985255962
p234
sS'sender_id'
p235
S'y69tang'
p236
sa(dp237
S'date'
p238
V2/4/2015
p239
sS'sup_id'
p240
Vy69tangtobuddy01427985488172
p241
sS'sender_id'
p242
S'y69tang'
p243
sa(dp244
S'date'
p245
V3/4/2015
p246
sS'sup_id'
p247
Vy69tangtobuddy01428091908095
p248
sS'sender_id'
p249
S'y69tang'
p250
sasS'user_id'
p251
g205
sS'full_name'
p252
Vbuddy0
p253
sS'friends_list'
p254
(lp255
ssVabe63l
p256
(dp257
S'sups'
p258
(lp259
(dp260
S'date'
p261
V30/3/2015
p262
sS'sup_id'
p263
Vy69tangtoabe63l1427730025549
p264
sS'sender_id'
p265
S'y69tang'
p266
sa(dp267
S'date'
p268
V30/3/2015
p269
sS'sup_id'
p270
Vy69tangtoabe63l1427730222736
p271
sS'sender_id'
p272
S'y69tang'
p273
sa(dp274
S'date'
p275
V1/4/2015
p276
sS'sup_id'
p277
Vy69tangtoabe63l1427902288191
p278
sS'sender_id'
p279
S'y69tang'
p280
sa(dp281
S'date'
p282
V1/4/2015
p283
sS'sup_id'
p284
Vy69tangtoabe63l1427903436033
p285
sS'sender_id'
p286
S'y69tang'
p287
sa(dp288
S'date'
p289
V1/4/2015
p290
sS'sup_id'
p291
Vy69tangtoabe63l1427903439667
p292
sS'sender_id'
p293
S'y69tang'
p294
sa(dp295
S'date'
p296
V1/4/2015
p297
sS'sup_id'
p298
Vy69tangtoabe63l1427903441365
p299
sS'sender_id'
p300
S'y69tang'
p301
sa(dp302
S'date'
p303
V1/4/2015
p304
sS'sup_id'
p305
Vy69tangtoabe63l1427903443308
p306
sS'sender_id'
p307
S'y69tang'
p308
sa(dp309
S'date'
p310
V1/4/2015
p311
sS'sup_id'
p312
Vy69tangtoabe63l1427928671252
p313
sS'sender_id'
p314
S'y69tang'
p315
sa(dp316
S'date'
p317
V1/4/2015
p318
sS'sup_id'
p319
Vy69tangtoabe63l1427929080419
p320
sS'sender_id'
p321
S'y69tang'
p322
sa(dp323
S'date'
p324
V1/4/2015
p325
sS'sup_id'
p326
Vy69tangtoabe63l1427929350614
p327
sS'sender_id'
p328
S'y69tang'
p329
sa(dp330
S'date'
p331
V1/4/2015
p332
sS'sup_id'
p333
Vy69tangtoabe63l1427929377282
p334
sS'sender_id'
p335
S'y69tang'
p336
sa(dp337
S'date'
p338
V1/4/2015
p339
sS'sup_id'
p340
Vy69tangtoabe63l1427929401045
p341
sS'sender_id'
p342
S'y69tang'
p343
sa(dp344
S'date'
p345
V2/4/2015
p346
sS'sup_id'
p347
Vy69tangtoabe63l1427985429701
p348
sS'sender_id'
p349
S'y69tang'
p350
sa(dp351
S'date'
p352
V3/4/2015
p353
sS'sup_id'
p354
Vy69tangtoabe63l1428091908095
p355
sS'sender_id'
p356
S'y69tang'
p357
sasS'user_id'
p358
g256
sS'friends_list'
p359
(lp360
Vy69tang
p361
asS'full_name'
p362
VAbe Lincoln
p363
ssVbud7
p364
(dp365
S'sups'
p366
(lp367
sS'user_id'
p368
g364
sS'friends_list'
p369
(lp370
sS'full_name'
p371
Vbud
p372
ssS'y69tang'
p373
(dp374
S'sups'
p375
(lp376
(dp377
S'date'
p378
V1/4/2015
p379
sS'sup_id'
p380
Vy69tangtoy69tang1427921828019
p381
sS'sender_id'
p382
S'y69tang'
p383
sa(dp384
S'date'
p385
V1/4/2015
p386
sS'sup_id'
p387
Vy69tangtoy69tang1427921834502
p388
sS'sender_id'
p389
S'y69tang'
p390
sa(dp391
S'date'
p392
V1/4/2015
p393
sS'sup_id'
p394
Vy69tangtoy69tang1427926829627
p395
sS'sender_id'
p396
S'y69tang'
p397
sa(dp398
S'date'
p399
V2/4/2015
p400
sS'sup_id'
p401
Vy69tangtoy69tang1427985217685
p402
sS'sender_id'
p403
S'y69tang'
p404
sasS'user_id'
p405
g373
sS'friends_list'
p406
(lp407
Vabe63l
p408
aVdallas63
p409
asS'full_name'
p410
S'Roy Tang'
p411
ssVbud3
p412
(dp413
S'sups'
p414
(lp415
(dp416
S'date'
p417
V1/4/2015
p418
sS'sup_id'
p419
Vy69tangtobud31427901808906
p420
sS'sender_id'
p421
S'y69tang'
p422
sasS'user_id'
p423
g412
sS'friends_list'
p424
(lp425
sS'full_name'
p426
Vbud
p427
ssVbud2
p428
(dp429
S'sups'
p430
(lp431
(dp432
S'date'
p433
V1/4/2015
p434
sS'sup_id'
p435
Vy69tangtobud21427901808906
p436
sS'sender_id'
p437
S'y69tang'
p438
sasS'user_id'
p439
g428
sS'full_name'
p440
Vbud
p441
sS'friends_list'
p442
(lp443
ssVbud1
p444
(dp445
S'sups'
p446
(lp447
(dp448
S'date'
p449
V1/4/2015
p450
sS'sup_id'
p451
Vy69tangtobud11427901808906
p452
sS'sender_id'
p453
S'y69tang'
p454
sasS'user_id'
p455
g444
sS'friends_list'
p456
(lp457
sS'full_name'
p458
Vbud
p459
ssVbud0
p460
(dp461
S'sups'
p462
(lp463
sS'user_id'
p464
g460
sS'full_name'
p465
Vbud
p466
sS'friends_list'
p467
(lp468
ssS'toothless'
p469
(dp470
S'sups'
p471
(lp472
sS'user_id'
p473
g469
sS'friends_list'
p474
(lp475
Vhiccup
p476
asS'full_name'
p477
S'nightfury'
p478
ssVbud6
p479
(dp480
S'sups'
p481
(lp482
sS'user_id'
p483
g479
sS'full_name'
p484
Vbud
p485
sS'friends_list'
p486
(lp487
ssVbud5
p488
(dp489
S'sups'
p490
(lp491
sS'user_id'
p492
g488
sS'friends_list'
p493
(lp494
sS'full_name'
p495
Vbud
p496
ssVbud4
p497
(dp498
S'sups'
p499
(lp500
sS'user_id'
p501
g497
sS'full_name'
p502
Vbud
p503
sS'friends_list'
p504
(lp505
ssVbud9
p506
(dp507
S'sups'
p508
(lp509
sS'user_id'
p510
g506
sS'friends_list'
p511
(lp512
sS'full_name'
p513
Vbud
p514
ssVbud8
p515
(dp516
S'sups'
p517
(lp518
sS'user_id'
p519
g515
sS'full_name'
p520
Vbud
p521
sS'friends_list'
p522
(lp523
ssVbaymax
p524
(dp525
S'sups'
p526
(lp527
sS'user_id'
p528
g524
sS'friends_list'
p529
(lp530
sS'full_name'
p531
VBAYMAX
p532
sss.